target datalayout = "e-m:e-p270:32:32-p271:32:32-p272:64:64-i64:64-i128:128-f80:128-n8:16:32:64-S128"
target triple = "x86_64-pc-linux-gnu"

%"struct.Luau::CodeGen::IrOp" = type { i32 }

; Function Attrs: mustprogress uwtable
define dso_local void @_ZN4Luau7CodeGen21translateInstSetUpvalERNS0_9IrBuilderEPKji(ptr noundef nonnull align 8 dereferenceable(752) %0, ptr noundef %1, i32 noundef %2) #0 {
  %4 = alloca ptr, align 8
  %5 = alloca ptr, align 8
  %6 = alloca i32, align 4
  %7 = alloca i32, align 4
  %8 = alloca i32, align 4
  %9 = alloca %"struct.Luau::CodeGen::IrOp", align 4
  %10 = alloca %"struct.Luau::CodeGen::IrOp", align 4
  %11 = alloca %"struct.Luau::CodeGen::IrOp", align 4
  %12 = alloca %"struct.Luau::CodeGen::IrOp", align 4
  store ptr %0, ptr %4, align 8, !tbaa !4
  store ptr %1, ptr %5, align 8, !tbaa !9
  store i32 %2, ptr %6, align 4, !tbaa !11
  call void @llvm.lifetime.start.p0(i64 4, ptr %7) #13
  %13 = load ptr, ptr %5, align 8, !tbaa !9
  %14 = load i32, ptr %13, align 4, !tbaa !11
  %15 = lshr i32 %14, 8
  %16 = and i32 %15, 255
  store i32 %16, ptr %7, align 4, !tbaa !11
  call void @llvm.lifetime.start.p0(i64 4, ptr %8) #13
  %17 = load ptr, ptr %5, align 8, !tbaa !9
  %18 = load i32, ptr %17, align 4, !tbaa !11
  %19 = lshr i32 %18, 16
  %20 = and i32 %19, 255
  store i32 %20, ptr %8, align 4, !tbaa !11
  %21 = load ptr, ptr %4, align 8, !tbaa !4
  %22 = load ptr, ptr %4, align 8, !tbaa !4
  %23 = load i32, ptr %8, align 4, !tbaa !11
  %24 = trunc i32 %23 to i8
  %25 = call i32 @_ZN4Luau7CodeGen9IrBuilder9vmUpvalueEh(ptr noundef nonnull align 8 dereferenceable(752) %22, i8 noundef zeroext %24)
  %26 = getelementptr inbounds nuw %"struct.Luau::CodeGen::IrOp", ptr %9, i32 0, i32 0
  store i32 %25, ptr %26, align 4
  %27 = load ptr, ptr %4, align 8, !tbaa !4
  %28 = load i32, ptr %7, align 4, !tbaa !11
  %29 = trunc i32 %28 to i8
  %30 = call i32 @_ZN4Luau7CodeGen9IrBuilder5vmRegEh(ptr noundef nonnull align 8 dereferenceable(752) %27, i8 noundef zeroext %29)
  %31 = getelementptr inbounds nuw %"struct.Luau::CodeGen::IrOp", ptr %10, i32 0, i32 0
  store i32 %30, ptr %31, align 4
  %32 = load ptr, ptr %4, align 8, !tbaa !4
  %33 = call i32 @_ZN4Luau7CodeGen9IrBuilder5undefEv(ptr noundef nonnull align 8 dereferenceable(752) %32)
  %34 = getelementptr inbounds nuw %"struct.Luau::CodeGen::IrOp", ptr %11, i32 0, i32 0
  store i32 %33, ptr %34, align 4
  %35 = getelementptr inbounds nuw %"struct.Luau::CodeGen::IrOp", ptr %9, i32 0, i32 0
  %36 = load i32, ptr %35, align 4
  %37 = getelementptr inbounds nuw %"struct.Luau::CodeGen::IrOp", ptr %10, i32 0, i32 0
  %38 = load i32, ptr %37, align 4
  %39 = getelementptr inbounds nuw %"struct.Luau::CodeGen::IrOp", ptr %11, i32 0, i32 0
  %40 = load i32, ptr %39, align 4
  %41 = call i32 @_ZN4Luau7CodeGen9IrBuilder4instENS0_5IrCmdENS0_4IrOpES3_S3_(ptr noundef nonnull align 8 dereferenceable(752) %21, i8 noundef zeroext 81, i32 %36, i32 %38, i32 %40)
  %42 = getelementptr inbounds nuw %"struct.Luau::CodeGen::IrOp", ptr %12, i32 0, i32 0
  store i32 %41, ptr %42, align 4
  call void @llvm.lifetime.end.p0(i64 4, ptr %8) #13
  call void @llvm.lifetime.end.p0(i64 4, ptr %7) #13
  ret void
}